target datalayout = "e-m:e-p270:32:32-p271:32:32-p272:64:64-i64:64-i128:128-f80:128-n8:16:32:64-S128"
target triple = "x86_64-pc-linux-gnu"

%struct._drange_node = type { i32, i32, i32, i32 }
%struct._drange = type { ptr, i8, i32, i32, i32 }

; Function Attrs: nounwind null_pointer_is_valid sspstrong uwtable
define internal void @update_drange_with_node(ptr noundef %0, ptr noundef %1) #6 {
  %3 = alloca ptr, align 8
  %4 = alloca ptr, align 8
  store ptr %0, ptr %3, align 8
  store ptr %1, ptr %4, align 8
  %5 = load ptr, ptr %4, align 8
  %6 = getelementptr inbounds nuw %struct._drange_node, ptr %5, i32 0, i32 3
  %7 = load i32, ptr %6, align 4
  %8 = icmp eq i32 %7, 3
  br i1 %8, label %9, label %12

9:                                                ; preds = %2
  %10 = load ptr, ptr %3, align 8
  %11 = getelementptr inbounds nuw %struct._drange, ptr %10, i32 0, i32 1
  store i8 0, ptr %11, align 8
  br label %26

12:                                               ; preds = %2
  %13 = load ptr, ptr %3, align 8
  %14 = getelementptr inbounds nuw %struct._drange, ptr %13, i32 0, i32 1
  %15 = load i8, ptr %14, align 8, !range !9, !noundef !10
  %16 = trunc i8 %15 to i1
  br i1 %16, label %17, label %25

17:                                               ; preds = %12
  %18 = load ptr, ptr %4, align 8
  %19 = getelementptr inbounds nuw %struct._drange_node, ptr %18, i32 0, i32 1
  %20 = load i32, ptr %19, align 4
  %21 = load ptr, ptr %3, align 8
  %22 = getelementptr inbounds nuw %struct._drange, ptr %21, i32 0, i32 2
  %23 = load i32, ptr %22, align 4
  %24 = add i32 %23, %20
  store i32 %24, ptr %22, align 4
  br label %25

25:                                               ; preds = %17, %12
  br label %26

26:                                               ; preds = %25, %9
  %27 = load ptr, ptr %4, align 8
  %28 = getelementptr inbounds nuw %struct._drange_node, ptr %27, i32 0, i32 0
  %29 = load i32, ptr %28, align 4
  %30 = load ptr, ptr %3, align 8
  %31 = getelementptr inbounds nuw %struct._drange, ptr %30, i32 0, i32 3
  %32 = load i32, ptr %31, align 8
  %33 = icmp slt i32 %29, %32
  br i1 %33, label %34, label %40

34:                                               ; preds = %26
  %35 = load ptr, ptr %4, align 8
  %36 = getelementptr inbounds nuw %struct._drange_node, ptr %35, i32 0, i32 0
  %37 = load i32, ptr %36, align 4
  %38 = load ptr, ptr %3, align 8
  %39 = getelementptr inbounds nuw %struct._drange, ptr %38, i32 0, i32 3
  store i32 %37, ptr %39, align 8
  br label %40

40:                                               ; preds = %34, %26
  %41 = load ptr, ptr %4, align 8
  %42 = getelementptr inbounds nuw %struct._drange_node, ptr %41, i32 0, i32 0
  %43 = load i32, ptr %42, align 4
  %44 = load ptr, ptr %3, align 8
  %45 = getelementptr inbounds nuw %struct._drange, ptr %44, i32 0, i32 4
  %46 = load i32, ptr %45, align 4
  %47 = icmp sgt i32 %43, %46
  br i1 %47, label %48, label %54

48:                                               ; preds = %40
  %49 = load ptr, ptr %4, align 8
  %50 = getelementptr inbounds nuw %struct._drange_node, ptr %49, i32 0, i32 0
  %51 = load i32, ptr %50, align 4
  %52 = load ptr, ptr %3, align 8
  %53 = getelementptr inbounds nuw %struct._drange, ptr %52, i32 0, i32 4
  store i32 %51, ptr %53, align 4
  br label %54

54:                                               ; preds = %48, %40
  ret void
}

; Function Attrs: null_pointer_is_valid sspstrong uwtable
define hidden void @drange_append_drange_node(ptr noundef %0, ptr noundef %1) #0 {
  %3 = alloca ptr, align 8
  %4 = alloca ptr, align 8
  store ptr %0, ptr %3, align 8
  store ptr %1, ptr %4, align 8
  %5 = load ptr, ptr %4, align 8
  %6 = icmp ne ptr %5, null
  br i1 %6, label %7, label %17

7:                                                ; preds = %2
  %8 = load ptr, ptr %3, align 8
  %9 = getelementptr inbounds nuw %struct._drange, ptr %8, i32 0, i32 0
  %10 = load ptr, ptr %9, align 8
  %11 = load ptr, ptr %4, align 8
  %12 = call ptr @g_slist_append(ptr noundef %10, ptr noundef %11)
  %13 = load ptr, ptr %3, align 8
  %14 = getelementptr inbounds nuw %struct._drange, ptr %13, i32 0, i32 0
  store ptr %12, ptr %14, align 8
  %15 = load ptr, ptr %3, align 8
  %16 = load ptr, ptr %4, align 8
  call void @update_drange_with_node(ptr noundef %15, ptr noundef %16)
  br label %17

17:                                               ; preds = %7, %2
  ret void
}

; Function Attrs: null_pointer_is_valid sspstrong uwtable
define internal void @drange_append_wrapper(ptr noundef %0, ptr noundef %1) #0 {
  %3 = alloca ptr, align 8
  %4 = alloca ptr, align 8
  %5 = alloca ptr, align 8
  %6 = alloca ptr, align 8
  store ptr %0, ptr %3, align 8
  store ptr %1, ptr %4, align 8
  call void @llvm.lifetime.start.p0(i64 8, ptr %5) #11
  %7 = load ptr, ptr %3, align 8
  store ptr %7, ptr %5, align 8
  call void @llvm.lifetime.start.p0(i64 8, ptr %6) #11
  %8 = load ptr, ptr %4, align 8
  store ptr %8, ptr %6, align 8
  %9 = load ptr, ptr %6, align 8
  %10 = load ptr, ptr %5, align 8
  call void @drange_append_drange_node(ptr noundef %9, ptr noundef %10)
  call void @llvm.lifetime.end.p0(i64 8, ptr %6) #11
  call void @llvm.lifetime.end.p0(i64 8, ptr %5) #11
  ret void
}