; Function Attrs: null_pointer_is_valid sspstrong uwtable
define internal void @drange_append_wrapper(ptr noundef %0, ptr noundef captures(none) %1) #0 {
  %.not.i = icmp eq ptr %0, null
  br i1 %.not.i, label %drange_append_drange_node.exit, label %3

3:                                                ; preds = %2
  %4 = load ptr, ptr %1, align 8
  %5 = tail call ptr @g_slist_append(ptr noundef %4, ptr noundef nonnull %0)
  store ptr %5, ptr %1, align 8
  %6 = getelementptr inbounds nuw i8, ptr %0, i64 12
  %7 = load i32, ptr %6, align 4
  %8 = icmp eq i32 %7, 3
  %9 = getelementptr inbounds nuw i8, ptr %1, i64 8
  br i1 %8, label %10, label %11

10:                                               ; preds = %3
  store i8 0, ptr %9, align 8
  br label %20

11:                                               ; preds = %3
  %12 = load i8, ptr %9, align 8, !range !9, !noundef !10
  %13 = trunc nuw i8 %12 to i1
  br i1 %13, label %14, label %20

14:                                               ; preds = %11
  %15 = getelementptr inbounds nuw i8, ptr %0, i64 4
  %16 = load i32, ptr %15, align 4
  %17 = getelementptr inbounds nuw i8, ptr %1, i64 12
  %18 = load i32, ptr %17, align 4
  %19 = add i32 %18, %16
  store i32 %19, ptr %17, align 4
  br label %20

20:                                               ; preds = %14, %11, %10
  %21 = load i32, ptr %0, align 4
  %22 = getelementptr inbounds nuw i8, ptr %1, i64 16
  %23 = load i32, ptr %22, align 8
  %24 = icmp slt i32 %21, %23
  br i1 %24, label %25, label %26

25:                                               ; preds = %20
  store i32 %21, ptr %22, align 8
  %.pre.i.i = load i32, ptr %0, align 4
  br label %26

26:                                               ; preds = %25, %20
  %27 = phi i32 [ %.pre.i.i, %25 ], [ %21, %20 ]
  %28 = getelementptr inbounds nuw i8, ptr %1, i64 20
  %29 = load i32, ptr %28, align 4
  %30 = icmp sgt i32 %27, %29
  br i1 %30, label %31, label %drange_append_drange_node.exit

31:                                               ; preds = %26
  store i32 %27, ptr %28, align 4
  br label %drange_append_drange_node.exit

drange_append_drange_node.exit:                   ; preds = %2, %26, %31
  ret void
}